; Function Attrs: nounwind uwtable
define internal void @lv_ime_pinyin_style_change_event(ptr noundef %0) #0 {
  %2 = tail call i32 @lv_event_get_code(ptr noundef %0) #6
  %3 = tail call ptr @lv_event_get_current_target(ptr noundef %0) #6
  %4 = icmp eq i32 %2, 50
  br i1 %4, label %5, label %9

5:                                                ; preds = %1
  %6 = tail call ptr @lv_obj_get_style_prop(ptr noundef %3, i32 noundef 0, i8 noundef zeroext 90) #6
  %7 = getelementptr inbounds nuw i8, ptr %3, i64 72
  %8 = load ptr, ptr %7, align 8, !tbaa !30
  tail call void @lv_obj_set_style_text_font(ptr noundef %8, ptr noundef %6, i32 noundef 0) #6
  br label %9

9:                                                ; preds = %5, %1
  ret void
}